target datalayout = "e-m:e-p270:32:32-p271:32:32-p272:64:64-i64:64-i128:128-f80:128-n8:16:32:64-S128"
target triple = "x86_64-pc-linux-gnu"

%struct.DdNode = type { i32, i32, ptr, %union.anon, i64 }
%union.anon = type { %struct.DdChildren }
%struct.DdChildren = type { ptr, ptr }
%struct.DdManager = type { %struct.DdNode, ptr, ptr, ptr, ptr, ptr, ptr, ptr, i32, i32, double, double, double, i32, i32, i32, i32, i32, i32, ptr, ptr, %struct.DdSubtable, i32, i32, i32, i32, i32, i32, i32, double, i32, i32, i32, ptr, i64, double, i32, ptr, ptr, ptr, ptr, ptr, ptr, ptr, i32, ptr, ptr, ptr, ptr, ptr, ptr, i32, i32, i32, double, i32, i32, i32, i32, double, double, i32, i32, i32, i32, i32, i32, i32, i32, i32, ptr, ptr, i32, i32, i32, i32, i32, i32, ptr, ptr, ptr, ptr, ptr, ptr, ptr, ptr, i32, i64, i64, i64, i32, i64, i64, double, double, double, double, double, double, i32, ptr, ptr, i64 }
%struct.DdSubtable = type { ptr, i32, i32, i32, i32, i32, i32, i32, i32, i32, i32, i32 }

; Function Attrs: nounwind uwtable
define ptr @cuddBddMakePrime(ptr noundef %0, ptr noundef %1, ptr noundef %2) #0 {
  %4 = alloca ptr, align 8
  %5 = alloca ptr, align 8
  %6 = alloca ptr, align 8
  %7 = alloca ptr, align 8
  %8 = alloca ptr, align 8
  %9 = alloca ptr, align 8
  %10 = alloca ptr, align 8
  %11 = alloca ptr, align 8
  %12 = alloca ptr, align 8
  %13 = alloca ptr, align 8
  %14 = alloca ptr, align 8
  %15 = alloca ptr, align 8
  %16 = alloca i32, align 4
  store ptr %0, ptr %5, align 8, !tbaa !3
  store ptr %1, ptr %6, align 8, !tbaa !8
  store ptr %2, ptr %7, align 8, !tbaa !8
  call void @llvm.lifetime.start.p0(i64 8, ptr %8) #6
  call void @llvm.lifetime.start.p0(i64 8, ptr %9) #6
  call void @llvm.lifetime.start.p0(i64 8, ptr %10) #6
  call void @llvm.lifetime.start.p0(i64 8, ptr %11) #6
  %17 = load ptr, ptr %6, align 8, !tbaa !8
  store ptr %17, ptr %11, align 8, !tbaa !8
  call void @llvm.lifetime.start.p0(i64 8, ptr %12) #6
  %18 = load ptr, ptr %5, align 8, !tbaa !3
  %19 = getelementptr inbounds nuw %struct.DdManager, ptr %18, i32 0, i32 1
  %20 = load ptr, ptr %19, align 8, !tbaa !20
  %21 = ptrtoint ptr %20 to i64
  %22 = xor i64 %21, 1
  %23 = inttoptr i64 %22 to ptr
  store ptr %23, ptr %12, align 8, !tbaa !8
  %24 = load ptr, ptr %11, align 8, !tbaa !8
  call void @Cudd_Ref(ptr noundef %24)
  %25 = load ptr, ptr %6, align 8, !tbaa !8
  store ptr %25, ptr %8, align 8, !tbaa !8
  br label %26

26:                                               ; preds = %90, %3
  %27 = load ptr, ptr %8, align 8, !tbaa !8
  %28 = ptrtoint ptr %27 to i64
  %29 = and i64 %28, -2
  %30 = inttoptr i64 %29 to ptr
  %31 = getelementptr inbounds nuw %struct.DdNode, ptr %30, i32 0, i32 0
  %32 = load i32, ptr %31, align 8, !tbaa !14
  %33 = icmp eq i32 %32, 2147483647
  %34 = xor i1 %33, true
  br i1 %34, label %35, label %91

35:                                               ; preds = %26
  call void @llvm.lifetime.start.p0(i64 8, ptr %13) #6
  %36 = load ptr, ptr %8, align 8, !tbaa !8
  %37 = ptrtoint ptr %36 to i64
  %38 = and i64 %37, -2
  %39 = inttoptr i64 %38 to ptr
  store ptr %39, ptr %13, align 8, !tbaa !8
  call void @llvm.lifetime.start.p0(i64 8, ptr %14) #6
  %40 = load ptr, ptr %5, align 8, !tbaa !3
  %41 = getelementptr inbounds nuw %struct.DdManager, ptr %40, i32 0, i32 41
  %42 = load ptr, ptr %41, align 8, !tbaa !47
  %43 = load ptr, ptr %13, align 8, !tbaa !8
  %44 = getelementptr inbounds nuw %struct.DdNode, ptr %43, i32 0, i32 0
  %45 = load i32, ptr %44, align 8, !tbaa !14
  %46 = zext i32 %45 to i64
  %47 = getelementptr inbounds nuw ptr, ptr %42, i64 %46
  %48 = load ptr, ptr %47, align 8, !tbaa !8
  store ptr %48, ptr %14, align 8, !tbaa !8
  call void @llvm.lifetime.start.p0(i64 8, ptr %15) #6
  %49 = load ptr, ptr %5, align 8, !tbaa !3
  %50 = load ptr, ptr %11, align 8, !tbaa !8
  %51 = load ptr, ptr %14, align 8, !tbaa !8
  %52 = call ptr @Cudd_bddExistAbstract(ptr noundef %49, ptr noundef %50, ptr noundef %51)
  store ptr %52, ptr %15, align 8, !tbaa !8
  %53 = load ptr, ptr %15, align 8, !tbaa !8
  %54 = icmp eq ptr %53, null
  br i1 %54, label %55, label %56

55:                                               ; preds = %35
  store ptr null, ptr %4, align 8
  store i32 1, ptr %16, align 4
  br label %88

56:                                               ; preds = %35
  %57 = load ptr, ptr %15, align 8, !tbaa !8
  call void @Cudd_Ref(ptr noundef %57)
  %58 = load ptr, ptr %5, align 8, !tbaa !3
  %59 = load ptr, ptr %15, align 8, !tbaa !8
  %60 = load ptr, ptr %7, align 8, !tbaa !8
  %61 = call i32 @Cudd_bddLeq(ptr noundef %58, ptr noundef %59, ptr noundef %60)
  %62 = icmp ne i32 %61, 0
  br i1 %62, label %63, label %67

63:                                               ; preds = %56
  %64 = load ptr, ptr %5, align 8, !tbaa !3
  %65 = load ptr, ptr %11, align 8, !tbaa !8
  call void @Cudd_RecursiveDeref(ptr noundef %64, ptr noundef %65)
  %66 = load ptr, ptr %15, align 8, !tbaa !8
  store ptr %66, ptr %11, align 8, !tbaa !8
  br label %70

67:                                               ; preds = %56
  %68 = load ptr, ptr %5, align 8, !tbaa !3
  %69 = load ptr, ptr %15, align 8, !tbaa !8
  call void @Cudd_RecursiveDeref(ptr noundef %68, ptr noundef %69)
  br label %70

70:                                               ; preds = %67, %63
  %71 = load ptr, ptr %8, align 8, !tbaa !8
  call void @cuddGetBranches(ptr noundef %71, ptr noundef %9, ptr noundef %10)
  %72 = load ptr, ptr %9, align 8, !tbaa !8
  %73 = load ptr, ptr %12, align 8, !tbaa !8
  %74 = icmp eq ptr %72, %73
  br i1 %74, label %75, label %77

75:                                               ; preds = %70
  %76 = load ptr, ptr %10, align 8, !tbaa !8
  store ptr %76, ptr %8, align 8, !tbaa !8
  br label %87

77:                                               ; preds = %70
  %78 = load ptr, ptr %10, align 8, !tbaa !8
  %79 = load ptr, ptr %12, align 8, !tbaa !8
  %80 = icmp eq ptr %78, %79
  br i1 %80, label %81, label %83

81:                                               ; preds = %77
  %82 = load ptr, ptr %9, align 8, !tbaa !8
  store ptr %82, ptr %8, align 8, !tbaa !8
  br label %86

83:                                               ; preds = %77
  %84 = load ptr, ptr %5, align 8, !tbaa !3
  %85 = load ptr, ptr %11, align 8, !tbaa !8
  call void @Cudd_RecursiveDeref(ptr noundef %84, ptr noundef %85)
  store ptr null, ptr %4, align 8
  store i32 1, ptr %16, align 4
  br label %88

86:                                               ; preds = %81
  br label %87

87:                                               ; preds = %86, %75
  store i32 0, ptr %16, align 4
  br label %88

88:                                               ; preds = %87, %83, %55
  call void @llvm.lifetime.end.p0(i64 8, ptr %15) #6
  call void @llvm.lifetime.end.p0(i64 8, ptr %14) #6
  call void @llvm.lifetime.end.p0(i64 8, ptr %13) #6
  %89 = load i32, ptr %16, align 4
  switch i32 %89, label %103 [
    i32 0, label %90
  ]

90:                                               ; preds = %88
  br label %26, !llvm.loop !59

91:                                               ; preds = %26
  %92 = load ptr, ptr %8, align 8, !tbaa !8
  %93 = load ptr, ptr %5, align 8, !tbaa !3
  %94 = getelementptr inbounds nuw %struct.DdManager, ptr %93, i32 0, i32 1
  %95 = load ptr, ptr %94, align 8, !tbaa !20
  %96 = icmp eq ptr %92, %95
  br i1 %96, label %97, label %100

97:                                               ; preds = %91
  %98 = load ptr, ptr %11, align 8, !tbaa !8
  call void @Cudd_Deref(ptr noundef %98)
  %99 = load ptr, ptr %11, align 8, !tbaa !8
  store ptr %99, ptr %4, align 8
  store i32 1, ptr %16, align 4
  br label %103

100:                                              ; preds = %91
  %101 = load ptr, ptr %5, align 8, !tbaa !3
  %102 = load ptr, ptr %11, align 8, !tbaa !8
  call void @Cudd_RecursiveDeref(ptr noundef %101, ptr noundef %102)
  store ptr null, ptr %4, align 8
  store i32 1, ptr %16, align 4
  br label %103

103:                                              ; preds = %100, %97, %88
  call void @llvm.lifetime.end.p0(i64 8, ptr %12) #6
  call void @llvm.lifetime.end.p0(i64 8, ptr %11) #6
  call void @llvm.lifetime.end.p0(i64 8, ptr %10) #6
  call void @llvm.lifetime.end.p0(i64 8, ptr %9) #6
  call void @llvm.lifetime.end.p0(i64 8, ptr %8) #6
  %104 = load ptr, ptr %4, align 8
  ret ptr %104
}